target datalayout = "e-m:e-p270:32:32-p271:32:32-p272:64:64-i64:64-i128:128-f80:128-n8:16:32:64-S128"
target triple = "x86_64-pc-linux-gnu"

%struct.AVFormatContext = type { ptr, ptr, ptr, ptr, ptr, i32, i32, ptr, i32, ptr, i32, ptr, ptr, i64, i64, i64, i32, i32, i32, i64, i64, ptr, i32, i32, ptr, i32, i32, i32, i32, ptr, i64, i32, i32, %struct.AVIOInterruptCB, i32, i32, i32, i32, i64, i32, i32, i32, i32, i32, i32, i32, i32, i32, i32, i32, i32, i64, i32, i32, i32, i32, i32, ptr, ptr, ptr, ptr, i32, ptr, ptr, ptr, ptr, i32, ptr, ptr, i64, ptr, ptr, ptr, i64 }
%struct.AVIOInterruptCB = type { ptr, ptr }
%struct.MOVMuxContext = type { ptr, i32, i64, i32, i32, i32, i32, i64, i64, ptr, i32, i32, i32, i32, i32, i32, i32, i32, i32, i32, i32, ptr, i32, i32, i32, i64, ptr, i32, ptr, ptr, i32, float, i32, i32, ptr, i32, ptr, i32, ptr, i32, i32, i32, i32, i32, i32, i32, i32, i32, [2 x i64], [2 x i32], i32, i32 }
%struct.MOVTrack = type { i32, i32, i32, i32, i64, i64, i32, i64, i64, i64, i32, i32, i32, i32, i32, i32, i32, ptr, ptr, i32, i32, i32, ptr, ptr, ptr, i32, i32, i32, i32, i32, i64, i64, i64, i32, i64, i32, i32, ptr, i32, i64, i32, i64, i32, i32, %struct.HintSampleQueue, ptr, ptr, i64, i32, i32, i32, ptr, i32, %struct.anon, ptr, %struct.MOVMuxCencContext, [256 x i32], i32, i32, i32, %struct.PacketList, ptr, i32, i32, ptr }
%struct.HintSampleQueue = type { i32, i32, ptr }
%struct.anon = type { i32, i32, i32, i32, i32, i32, i32 }
%struct.MOVMuxCencContext = type { ptr, ptr, i64, i64, i32, i32, i16, i64, ptr, i64, ptr, i32, i32, ptr, %struct.CodedBitstreamFragment }
%struct.CodedBitstreamFragment = type { ptr, i64, i64, ptr, i32, i32, ptr }
%struct.PacketList = type { ptr, ptr }

; Function Attrs: nounwind uwtable
define internal i32 @get_moov_size(ptr noundef %0) #0 {
  %2 = alloca i32, align 4
  %3 = alloca ptr, align 8
  %4 = alloca i32, align 4
  %5 = alloca ptr, align 8
  %6 = alloca ptr, align 8
  %7 = alloca i32, align 4
  store ptr %0, ptr %3, align 8, !tbaa !4
  call void @llvm.lifetime.start.p0(i64 4, ptr %4) #14
  call void @llvm.lifetime.start.p0(i64 8, ptr %5) #14
  call void @llvm.lifetime.start.p0(i64 8, ptr %6) #14
  %8 = load ptr, ptr %3, align 8, !tbaa !4
  %9 = getelementptr inbounds nuw %struct.AVFormatContext, ptr %8, i32 0, i32 3
  %10 = load ptr, ptr %9, align 8, !tbaa !11
  store ptr %10, ptr %6, align 8, !tbaa !28
  %11 = call i32 @ffio_open_null_buf(ptr noundef %5)
  store i32 %11, ptr %4, align 4, !tbaa !32
  %12 = icmp slt i32 %11, 0
  br i1 %12, label %13, label %15

13:                                               ; preds = %1
  %14 = load i32, ptr %4, align 4, !tbaa !32
  store i32 %14, ptr %2, align 4
  store i32 1, ptr %7, align 4
  br label %26

15:                                               ; preds = %1
  %16 = load ptr, ptr %5, align 8, !tbaa !31
  %17 = load ptr, ptr %6, align 8, !tbaa !28
  %18 = load ptr, ptr %3, align 8, !tbaa !4
  %19 = call i32 @mov_write_moov_tag(ptr noundef %16, ptr noundef %17, ptr noundef %18)
  store i32 %19, ptr %4, align 4, !tbaa !32
  %20 = icmp slt i32 %19, 0
  br i1 %20, label %21, label %23

21:                                               ; preds = %15
  %22 = load i32, ptr %4, align 4, !tbaa !32
  store i32 %22, ptr %2, align 4
  store i32 1, ptr %7, align 4
  br label %26

23:                                               ; preds = %15
  %24 = load ptr, ptr %5, align 8, !tbaa !31
  %25 = call i32 @ffio_close_null_buf(ptr noundef %24)
  store i32 %25, ptr %2, align 4
  store i32 1, ptr %7, align 4
  br label %26

26:                                               ; preds = %23, %21, %13
  call void @llvm.lifetime.end.p0(i64 8, ptr %6) #14
  call void @llvm.lifetime.end.p0(i64 8, ptr %5) #14
  call void @llvm.lifetime.end.p0(i64 4, ptr %4) #14
  %27 = load i32, ptr %2, align 4
  ret i32 %27
}

; Function Attrs: nounwind uwtable
define internal i32 @get_sidx_size(ptr noundef %0) #0 {
  %2 = alloca i32, align 4
  %3 = alloca ptr, align 8
  %4 = alloca i32, align 4
  %5 = alloca ptr, align 8
  %6 = alloca ptr, align 8
  %7 = alloca i32, align 4
  store ptr %0, ptr %3, align 8, !tbaa !4
  call void @llvm.lifetime.start.p0(i64 4, ptr %4) #14
  call void @llvm.lifetime.start.p0(i64 8, ptr %5) #14
  call void @llvm.lifetime.start.p0(i64 8, ptr %6) #14
  %8 = load ptr, ptr %3, align 8, !tbaa !4
  %9 = getelementptr inbounds nuw %struct.AVFormatContext, ptr %8, i32 0, i32 3
  %10 = load ptr, ptr %9, align 8, !tbaa !11
  store ptr %10, ptr %6, align 8, !tbaa !28
  %11 = call i32 @ffio_open_null_buf(ptr noundef %5)
  store i32 %11, ptr %4, align 4, !tbaa !32
  %12 = icmp slt i32 %11, 0
  br i1 %12, label %13, label %15

13:                                               ; preds = %1
  %14 = load i32, ptr %4, align 4, !tbaa !32
  store i32 %14, ptr %2, align 4
  store i32 1, ptr %7, align 4
  br label %21

15:                                               ; preds = %1
  %16 = load ptr, ptr %5, align 8, !tbaa !31
  %17 = load ptr, ptr %6, align 8, !tbaa !28
  %18 = call i32 @mov_write_sidx_tags(ptr noundef %16, ptr noundef %17, i32 noundef -1, i32 noundef 0)
  %19 = load ptr, ptr %5, align 8, !tbaa !31
  %20 = call i32 @ffio_close_null_buf(ptr noundef %19)
  store i32 %20, ptr %2, align 4
  store i32 1, ptr %7, align 4
  br label %21

21:                                               ; preds = %15, %13
  call void @llvm.lifetime.end.p0(i64 8, ptr %6) #14
  call void @llvm.lifetime.end.p0(i64 8, ptr %5) #14
  call void @llvm.lifetime.end.p0(i64 4, ptr %4) #14
  %22 = load i32, ptr %2, align 4
  ret i32 %22
}

; Function Attrs: nounwind uwtable
define internal i32 @compute_moov_size(ptr noundef %0) #0 {
  %2 = alloca i32, align 4
  %3 = alloca ptr, align 8
  %4 = alloca i32, align 4
  %5 = alloca i32, align 4
  %6 = alloca i32, align 4
  %7 = alloca ptr, align 8
  %8 = alloca i32, align 4
  store ptr %0, ptr %3, align 8, !tbaa !4
  call void @llvm.lifetime.start.p0(i64 4, ptr %4) #14
  call void @llvm.lifetime.start.p0(i64 4, ptr %5) #14
  call void @llvm.lifetime.start.p0(i64 4, ptr %6) #14
  call void @llvm.lifetime.start.p0(i64 8, ptr %7) #14
  %9 = load ptr, ptr %3, align 8, !tbaa !4
  %10 = getelementptr inbounds nuw %struct.AVFormatContext, ptr %9, i32 0, i32 3
  %11 = load ptr, ptr %10, align 8, !tbaa !11
  store ptr %11, ptr %7, align 8, !tbaa !28
  %12 = load ptr, ptr %3, align 8, !tbaa !4
  %13 = call i32 @get_moov_size(ptr noundef %12)
  store i32 %13, ptr %5, align 4, !tbaa !32
  %14 = load i32, ptr %5, align 4, !tbaa !32
  %15 = icmp slt i32 %14, 0
  br i1 %15, label %16, label %18

16:                                               ; preds = %1
  %17 = load i32, ptr %5, align 4, !tbaa !32
  store i32 %17, ptr %2, align 4
  store i32 1, ptr %8, align 4
  br label %78

18:                                               ; preds = %1
  store i32 0, ptr %4, align 4, !tbaa !32
  br label %19

19:                                               ; preds = %37, %18
  %20 = load i32, ptr %4, align 4, !tbaa !32
  %21 = load ptr, ptr %7, align 8, !tbaa !28
  %22 = getelementptr inbounds nuw %struct.MOVMuxContext, ptr %21, i32 0, i32 4
  %23 = load i32, ptr %22, align 4, !tbaa !99
  %24 = icmp slt i32 %20, %23
  br i1 %24, label %25, label %40

25:                                               ; preds = %19
  %26 = load i32, ptr %5, align 4, !tbaa !32
  %27 = sext i32 %26 to i64
  %28 = load ptr, ptr %7, align 8, !tbaa !28
  %29 = getelementptr inbounds nuw %struct.MOVMuxContext, ptr %28, i32 0, i32 9
  %30 = load ptr, ptr %29, align 8, !tbaa !49
  %31 = load i32, ptr %4, align 4, !tbaa !32
  %32 = sext i32 %31 to i64
  %33 = getelementptr inbounds %struct.MOVTrack, ptr %30, i64 %32
  %34 = getelementptr inbounds nuw %struct.MOVTrack, ptr %33, i32 0, i32 47
  %35 = load i64, ptr %34, align 8, !tbaa !229
  %36 = add nsw i64 %35, %27
  store i64 %36, ptr %34, align 8, !tbaa !229
  br label %37

37:                                               ; preds = %25
  %38 = load i32, ptr %4, align 4, !tbaa !32
  %39 = add nsw i32 %38, 1
  store i32 %39, ptr %4, align 4, !tbaa !32
  br label %19, !llvm.loop !580

40:                                               ; preds = %19
  %41 = load ptr, ptr %3, align 8, !tbaa !4
  %42 = call i32 @get_moov_size(ptr noundef %41)
  store i32 %42, ptr %6, align 4, !tbaa !32
  %43 = load i32, ptr %6, align 4, !tbaa !32
  %44 = icmp slt i32 %43, 0
  br i1 %44, label %45, label %47

45:                                               ; preds = %40
  %46 = load i32, ptr %6, align 4, !tbaa !32
  store i32 %46, ptr %2, align 4
  store i32 1, ptr %8, align 4
  br label %78

47:                                               ; preds = %40
  %48 = load i32, ptr %6, align 4, !tbaa !32
  %49 = load i32, ptr %5, align 4, !tbaa !32
  %50 = icmp ne i32 %48, %49
  br i1 %50, label %51, label %76

51:                                               ; preds = %47
  store i32 0, ptr %4, align 4, !tbaa !32
  br label %52

52:                                               ; preds = %72, %51
  %53 = load i32, ptr %4, align 4, !tbaa !32
  %54 = load ptr, ptr %7, align 8, !tbaa !28
  %55 = getelementptr inbounds nuw %struct.MOVMuxContext, ptr %54, i32 0, i32 4
  %56 = load i32, ptr %55, align 4, !tbaa !99
  %57 = icmp slt i32 %53, %56
  br i1 %57, label %58, label %75

58:                                               ; preds = %52
  %59 = load i32, ptr %6, align 4, !tbaa !32
  %60 = load i32, ptr %5, align 4, !tbaa !32
  %61 = sub nsw i32 %59, %60
  %62 = sext i32 %61 to i64
  %63 = load ptr, ptr %7, align 8, !tbaa !28
  %64 = getelementptr inbounds nuw %struct.MOVMuxContext, ptr %63, i32 0, i32 9
  %65 = load ptr, ptr %64, align 8, !tbaa !49
  %66 = load i32, ptr %4, align 4, !tbaa !32
  %67 = sext i32 %66 to i64
  %68 = getelementptr inbounds %struct.MOVTrack, ptr %65, i64 %67
  %69 = getelementptr inbounds nuw %struct.MOVTrack, ptr %68, i32 0, i32 47
  %70 = load i64, ptr %69, align 8, !tbaa !229
  %71 = add nsw i64 %70, %62
  store i64 %71, ptr %69, align 8, !tbaa !229
  br label %72

72:                                               ; preds = %58
  %73 = load i32, ptr %4, align 4, !tbaa !32
  %74 = add nsw i32 %73, 1
  store i32 %74, ptr %4, align 4, !tbaa !32
  br label %52, !llvm.loop !581

75:                                               ; preds = %52
  br label %76

76:                                               ; preds = %75, %47
  %77 = load i32, ptr %6, align 4, !tbaa !32
  store i32 %77, ptr %2, align 4
  store i32 1, ptr %8, align 4
  br label %78

78:                                               ; preds = %76, %45, %16
  call void @llvm.lifetime.end.p0(i64 8, ptr %7) #14
  call void @llvm.lifetime.end.p0(i64 4, ptr %6) #14
  call void @llvm.lifetime.end.p0(i64 4, ptr %5) #14
  call void @llvm.lifetime.end.p0(i64 4, ptr %4) #14
  %79 = load i32, ptr %2, align 4
  ret i32 %79
}

; Function Attrs: nounwind uwtable
define internal i32 @compute_sidx_size(ptr noundef %0) #0 {
  %2 = alloca i32, align 4
  %3 = alloca ptr, align 8
  %4 = alloca i32, align 4
  %5 = alloca i32, align 4
  %6 = alloca ptr, align 8
  %7 = alloca i32, align 4
  store ptr %0, ptr %3, align 8, !tbaa !4
  call void @llvm.lifetime.start.p0(i64 4, ptr %4) #14
  call void @llvm.lifetime.start.p0(i64 4, ptr %5) #14
  call void @llvm.lifetime.start.p0(i64 8, ptr %6) #14
  %8 = load ptr, ptr %3, align 8, !tbaa !4
  %9 = getelementptr inbounds nuw %struct.AVFormatContext, ptr %8, i32 0, i32 3
  %10 = load ptr, ptr %9, align 8, !tbaa !11
  store ptr %10, ptr %6, align 8, !tbaa !28
  %11 = load ptr, ptr %3, align 8, !tbaa !4
  %12 = call i32 @get_sidx_size(ptr noundef %11)
  store i32 %12, ptr %5, align 4, !tbaa !32
  %13 = load i32, ptr %5, align 4, !tbaa !32
  %14 = icmp slt i32 %13, 0
  br i1 %14, label %15, label %17

15:                                               ; preds = %1
  %16 = load i32, ptr %5, align 4, !tbaa !32
  store i32 %16, ptr %2, align 4
  store i32 1, ptr %7, align 4
  br label %41

17:                                               ; preds = %1
  store i32 0, ptr %4, align 4, !tbaa !32
  br label %18

18:                                               ; preds = %36, %17
  %19 = load i32, ptr %4, align 4, !tbaa !32
  %20 = load ptr, ptr %6, align 8, !tbaa !28
  %21 = getelementptr inbounds nuw %struct.MOVMuxContext, ptr %20, i32 0, i32 4
  %22 = load i32, ptr %21, align 4, !tbaa !99
  %23 = icmp slt i32 %19, %22
  br i1 %23, label %24, label %39

24:                                               ; preds = %18
  %25 = load i32, ptr %5, align 4, !tbaa !32
  %26 = sext i32 %25 to i64
  %27 = load ptr, ptr %6, align 8, !tbaa !28
  %28 = getelementptr inbounds nuw %struct.MOVMuxContext, ptr %27, i32 0, i32 9
  %29 = load ptr, ptr %28, align 8, !tbaa !49
  %30 = load i32, ptr %4, align 4, !tbaa !32
  %31 = sext i32 %30 to i64
  %32 = getelementptr inbounds %struct.MOVTrack, ptr %29, i64 %31
  %33 = getelementptr inbounds nuw %struct.MOVTrack, ptr %32, i32 0, i32 47
  %34 = load i64, ptr %33, align 8, !tbaa !229
  %35 = add nsw i64 %34, %26
  store i64 %35, ptr %33, align 8, !tbaa !229
  br label %36

36:                                               ; preds = %24
  %37 = load i32, ptr %4, align 4, !tbaa !32
  %38 = add nsw i32 %37, 1
  store i32 %38, ptr %4, align 4, !tbaa !32
  br label %18, !llvm.loop !579

39:                                               ; preds = %18
  %40 = load i32, ptr %5, align 4, !tbaa !32
  store i32 %40, ptr %2, align 4
  store i32 1, ptr %7, align 4
  br label %41

41:                                               ; preds = %39, %15
  call void @llvm.lifetime.end.p0(i64 8, ptr %6) #14
  call void @llvm.lifetime.end.p0(i64 4, ptr %5) #14
  call void @llvm.lifetime.end.p0(i64 4, ptr %4) #14
  %42 = load i32, ptr %2, align 4
  ret i32 %42
}

; Function Attrs: nounwind uwtable
define internal i32 @shift_data(ptr noundef %0) #0 {
  %2 = alloca i32, align 4
  %3 = alloca ptr, align 8
  %4 = alloca i32, align 4
  %5 = alloca ptr, align 8
  %6 = alloca i32, align 4
  store ptr %0, ptr %3, align 8, !tbaa !4
  call void @llvm.lifetime.start.p0(i64 4, ptr %4) #14
  call void @llvm.lifetime.start.p0(i64 8, ptr %5) #14
  %7 = load ptr, ptr %3, align 8, !tbaa !4
  %8 = getelementptr inbounds nuw %struct.AVFormatContext, ptr %7, i32 0, i32 3
  %9 = load ptr, ptr %8, align 8, !tbaa !11
  store ptr %9, ptr %5, align 8, !tbaa !28
  %10 = load ptr, ptr %5, align 8, !tbaa !28
  %11 = getelementptr inbounds nuw %struct.MOVMuxContext, ptr %10, i32 0, i32 10
  %12 = load i32, ptr %11, align 8, !tbaa !72
  %13 = and i32 %12, 2
  %14 = icmp ne i32 %13, 0
  br i1 %14, label %15, label %18

15:                                               ; preds = %1
  %16 = load ptr, ptr %3, align 8, !tbaa !4
  %17 = call i32 @compute_sidx_size(ptr noundef %16)
  store i32 %17, ptr %4, align 4, !tbaa !32
  br label %21

18:                                               ; preds = %1
  %19 = load ptr, ptr %3, align 8, !tbaa !4
  %20 = call i32 @compute_moov_size(ptr noundef %19)
  store i32 %20, ptr %4, align 4, !tbaa !32
  br label %21

21:                                               ; preds = %18, %15
  %22 = load i32, ptr %4, align 4, !tbaa !32
  %23 = icmp slt i32 %22, 0
  br i1 %23, label %24, label %26

24:                                               ; preds = %21
  %25 = load i32, ptr %4, align 4, !tbaa !32
  store i32 %25, ptr %2, align 4
  store i32 1, ptr %6, align 4
  br label %33

26:                                               ; preds = %21
  %27 = load ptr, ptr %3, align 8, !tbaa !4
  %28 = load ptr, ptr %5, align 8, !tbaa !28
  %29 = getelementptr inbounds nuw %struct.MOVMuxContext, ptr %28, i32 0, i32 25
  %30 = load i64, ptr %29, align 8, !tbaa !202
  %31 = load i32, ptr %4, align 4, !tbaa !32
  %32 = call i32 @ff_format_shift_data(ptr noundef %27, i64 noundef %30, i32 noundef %31)
  store i32 %32, ptr %2, align 4
  store i32 1, ptr %6, align 4
  br label %33

33:                                               ; preds = %26, %24
  call void @llvm.lifetime.end.p0(i64 8, ptr %5) #14
  call void @llvm.lifetime.end.p0(i64 4, ptr %4) #14
  %34 = load i32, ptr %2, align 4
  ret i32 %34
}