; Function Attrs: nounwind uwtable
define internal fastcc i32 @shift_data(ptr noundef %0) unnamed_addr #0 {
  %2 = alloca ptr, align 8
  %3 = alloca ptr, align 8
  %4 = alloca ptr, align 8
  %5 = getelementptr inbounds nuw i8, ptr %0, i64 24
  %6 = load ptr, ptr %5, align 8, !tbaa !4
  %7 = getelementptr inbounds nuw i8, ptr %6, i64 64
  %8 = load i32, ptr %7, align 8, !tbaa !75
  %9 = and i32 %8, 2
  %.not = icmp eq i32 %9, 0
  br i1 %.not, label %27, label %10

10:                                               ; preds = %1
  call void @llvm.lifetime.start.p0(i64 8, ptr nonnull %4) #16
  %11 = call i32 @ffio_open_null_buf(ptr noundef nonnull %4) #16
  %12 = icmp slt i32 %11, 0
  br i1 %12, label %get_sidx_size.exit.thread.i, label %get_sidx_size.exit.i

get_sidx_size.exit.thread.i:                      ; preds = %10
  call void @llvm.lifetime.end.p0(i64 8, ptr nonnull %4) #16
  br label %compute_sidx_size.exit.thread

get_sidx_size.exit.i:                             ; preds = %10
  %13 = load ptr, ptr %4, align 8, !tbaa !83
  call fastcc void @mov_write_sidx_tags(ptr noundef %13, ptr noundef nonnull readonly %6, i32 noundef -1, i32 noundef 0)
  %14 = load ptr, ptr %4, align 8, !tbaa !83
  %15 = call i32 @ffio_close_null_buf(ptr noundef %14) #16
  call void @llvm.lifetime.end.p0(i64 8, ptr nonnull %4) #16
  %16 = icmp slt i32 %15, 0
  br i1 %16, label %compute_sidx_size.exit.thread, label %.preheader.i

.preheader.i:                                     ; preds = %get_sidx_size.exit.i
  %17 = getelementptr inbounds nuw i8, ptr %6, i64 28
  %18 = load i32, ptr %17, align 4, !tbaa !102
  %19 = icmp sgt i32 %18, 0
  br i1 %19, label %.lr.ph.i, label %compute_sidx_size.exit.thread19

.lr.ph.i:                                         ; preds = %.preheader.i
  %20 = zext nneg i32 %15 to i64
  %21 = getelementptr inbounds nuw i8, ptr %6, i64 56
  %22 = load ptr, ptr %21, align 8, !tbaa !40
  %wide.trip.count.i = zext nneg i32 %18 to i64
  br label %23

23:                                               ; preds = %23, %.lr.ph.i
  %indvars.iv.i = phi i64 [ 0, %.lr.ph.i ], [ %indvars.iv.next.i, %23 ]
  %24 = getelementptr inbounds nuw %struct.MOVTrack, ptr %22, i64 %indvars.iv.i, i32 47
  %25 = load i64, ptr %24, align 8, !tbaa !240
  %26 = add nsw i64 %25, %20
  store i64 %26, ptr %24, align 8, !tbaa !240
  %indvars.iv.next.i = add nuw nsw i64 %indvars.iv.i, 1
  %exitcond.not.i = icmp eq i64 %indvars.iv.next.i, %wide.trip.count.i
  br i1 %exitcond.not.i, label %compute_sidx_size.exit.thread19, label %23, !llvm.loop !528

27:                                               ; preds = %1
  call void @llvm.lifetime.start.p0(i64 8, ptr nonnull %3) #16
  %28 = call i32 @ffio_open_null_buf(ptr noundef nonnull %3) #16
  %29 = icmp slt i32 %28, 0
  br i1 %29, label %get_moov_size.exit.thread.i, label %30

30:                                               ; preds = %27
  %31 = load ptr, ptr %3, align 8, !tbaa !83
  %32 = call fastcc i32 @mov_write_moov_tag(ptr noundef %31, ptr noundef nonnull %6, ptr noundef nonnull %0)
  %33 = icmp slt i32 %32, 0
  br i1 %33, label %get_moov_size.exit.thread.i, label %get_moov_size.exit.i

get_moov_size.exit.thread.i:                      ; preds = %30, %27
  %.0.i.ph.i = phi i32 [ %32, %30 ], [ %28, %27 ]
  call void @llvm.lifetime.end.p0(i64 8, ptr nonnull %3) #16
  br label %compute_sidx_size.exit.thread

get_moov_size.exit.i:                             ; preds = %30
  %34 = load ptr, ptr %3, align 8, !tbaa !83
  %35 = call i32 @ffio_close_null_buf(ptr noundef %34) #16
  call void @llvm.lifetime.end.p0(i64 8, ptr nonnull %3) #16
  %36 = icmp slt i32 %35, 0
  br i1 %36, label %compute_sidx_size.exit.thread, label %.preheader34.i

.preheader34.i:                                   ; preds = %get_moov_size.exit.i
  %37 = getelementptr inbounds nuw i8, ptr %6, i64 28
  %38 = load i32, ptr %37, align 4, !tbaa !102
  %39 = icmp sgt i32 %38, 0
  br i1 %39, label %.lr.ph.i11, label %._crit_edge.i

.lr.ph.i11:                                       ; preds = %.preheader34.i
  %40 = zext nneg i32 %35 to i64
  %41 = getelementptr inbounds nuw i8, ptr %6, i64 56
  %42 = load ptr, ptr %41, align 8, !tbaa !40
  %wide.trip.count.i12 = zext nneg i32 %38 to i64
  br label %43

43:                                               ; preds = %43, %.lr.ph.i11
  %indvars.iv.i13 = phi i64 [ 0, %.lr.ph.i11 ], [ %indvars.iv.next.i14, %43 ]
  %44 = getelementptr inbounds nuw %struct.MOVTrack, ptr %42, i64 %indvars.iv.i13, i32 47
  %45 = load i64, ptr %44, align 8, !tbaa !240
  %46 = add nsw i64 %45, %40
  store i64 %46, ptr %44, align 8, !tbaa !240
  %indvars.iv.next.i14 = add nuw nsw i64 %indvars.iv.i13, 1
  %exitcond.not.i15 = icmp eq i64 %indvars.iv.next.i14, %wide.trip.count.i12
  br i1 %exitcond.not.i15, label %._crit_edge.i, label %43, !llvm.loop !529

._crit_edge.i:                                    ; preds = %43, %.preheader34.i
  call void @llvm.lifetime.start.p0(i64 8, ptr nonnull %2) #16
  %47 = load ptr, ptr %5, align 8, !tbaa !4
  %48 = call i32 @ffio_open_null_buf(ptr noundef nonnull %2) #16
  %49 = icmp slt i32 %48, 0
  br i1 %49, label %get_moov_size.exit29.thread.i, label %50

50:                                               ; preds = %._crit_edge.i
  %51 = load ptr, ptr %2, align 8, !tbaa !83
  %52 = call fastcc i32 @mov_write_moov_tag(ptr noundef %51, ptr noundef %47, ptr noundef nonnull %0)
  %53 = icmp slt i32 %52, 0
  br i1 %53, label %get_moov_size.exit29.thread.i, label %get_moov_size.exit29.i

get_moov_size.exit29.thread.i:                    ; preds = %50, %._crit_edge.i
  %.0.i28.ph.i = phi i32 [ %52, %50 ], [ %48, %._crit_edge.i ]
  call void @llvm.lifetime.end.p0(i64 8, ptr nonnull %2) #16
  br label %compute_sidx_size.exit.thread

get_moov_size.exit29.i:                           ; preds = %50
  %54 = load ptr, ptr %2, align 8, !tbaa !83
  %55 = call i32 @ffio_close_null_buf(ptr noundef %54) #16
  call void @llvm.lifetime.end.p0(i64 8, ptr nonnull %2) #16
  %56 = icmp slt i32 %55, 0
  %.not.i = icmp eq i32 %55, %35
  %or.cond.i = or i1 %56, %.not.i
  br i1 %or.cond.i, label %compute_sidx_size.exit, label %.preheader.i10

.preheader.i10:                                   ; preds = %get_moov_size.exit29.i
  %57 = load i32, ptr %37, align 4, !tbaa !102
  %58 = icmp sgt i32 %57, 0
  br i1 %58, label %.lr.ph37.i, label %compute_sidx_size.exit.thread19

.lr.ph37.i:                                       ; preds = %.preheader.i10
  %59 = sub nsw i32 %55, %35
  %60 = sext i32 %59 to i64
  %61 = getelementptr inbounds nuw i8, ptr %6, i64 56
  %62 = load ptr, ptr %61, align 8, !tbaa !40
  %wide.trip.count42.i = zext nneg i32 %57 to i64
  br label %63

63:                                               ; preds = %63, %.lr.ph37.i
  %indvars.iv39.i = phi i64 [ 0, %.lr.ph37.i ], [ %indvars.iv.next40.i, %63 ]
  %64 = getelementptr inbounds nuw %struct.MOVTrack, ptr %62, i64 %indvars.iv39.i, i32 47
  %65 = load i64, ptr %64, align 8, !tbaa !240
  %66 = add nsw i64 %65, %60
  store i64 %66, ptr %64, align 8, !tbaa !240
  %indvars.iv.next40.i = add nuw nsw i64 %indvars.iv39.i, 1
  %exitcond43.not.i = icmp eq i64 %indvars.iv.next40.i, %wide.trip.count42.i
  br i1 %exitcond43.not.i, label %compute_sidx_size.exit.thread19, label %63, !llvm.loop !530

compute_sidx_size.exit:                           ; preds = %get_moov_size.exit29.i
  br i1 %56, label %compute_sidx_size.exit.thread, label %compute_sidx_size.exit.thread19

compute_sidx_size.exit.thread19:                  ; preds = %23, %63, %.preheader.i10, %.preheader.i, %compute_sidx_size.exit
  %.0921 = phi i32 [ %55, %compute_sidx_size.exit ], [ %55, %.preheader.i10 ], [ %15, %.preheader.i ], [ %55, %63 ], [ %15, %23 ]
  %67 = getelementptr inbounds nuw i8, ptr %6, i64 136
  %68 = load i64, ptr %67, align 8, !tbaa !194
  %69 = call i32 @ff_format_shift_data(ptr noundef nonnull %0, i64 noundef %68, i32 noundef %.0921) #16
  br label %compute_sidx_size.exit.thread

compute_sidx_size.exit.thread:                    ; preds = %get_moov_size.exit29.thread.i, %get_moov_size.exit.thread.i, %get_moov_size.exit.i, %get_sidx_size.exit.i, %get_sidx_size.exit.thread.i, %compute_sidx_size.exit, %compute_sidx_size.exit.thread19
  %.0 = phi i32 [ %69, %compute_sidx_size.exit.thread19 ], [ %55, %compute_sidx_size.exit ], [ %.0.i28.ph.i, %get_moov_size.exit29.thread.i ], [ %.0.i.ph.i, %get_moov_size.exit.thread.i ], [ %35, %get_moov_size.exit.i ], [ %15, %get_sidx_size.exit.i ], [ %11, %get_sidx_size.exit.thread.i ]
  ret i32 %.0
}